target datalayout = "e-m:e-p270:32:32-p271:32:32-p272:64:64-i64:64-i128:128-f80:128-n8:16:32:64-S128"
target triple = "x86_64-unknown-linux-gnu"

%struct.DOECap = type { ptr, i16, %struct.anon, %struct.anon.0, %struct.anon.1, ptr, ptr, i32, i32, i32, ptr, i16 }
%struct.anon = type { i8, i16 }
%struct.anon.0 = type { i8, i8, i8 }
%struct.anon.1 = type { i8, i8, i8, i8 }

; Function Attrs: nounwind sspstrong uwtable
define dso_local void @pcie_doe_fini(ptr noundef %doe_cap) #0 {
entry:
  %doe_cap.addr = alloca ptr, align 8
  store ptr %doe_cap, ptr %doe_cap.addr, align 8
  %0 = load ptr, ptr %doe_cap.addr, align 8
  %read_mbox = getelementptr inbounds %struct.DOECap, ptr %0, i32 0, i32 6
  %1 = load ptr, ptr %read_mbox, align 8
  call void @g_free(ptr noundef %1)
  %2 = load ptr, ptr %doe_cap.addr, align 8
  %write_mbox = getelementptr inbounds %struct.DOECap, ptr %2, i32 0, i32 5
  %3 = load ptr, ptr %write_mbox, align 8
  call void @g_free(ptr noundef %3)
  %4 = load ptr, ptr %doe_cap.addr, align 8
  call void @g_free(ptr noundef %4)
  ret void
}