; Function Attrs: nounwind sspstrong uwtable
define dso_local void @pcie_doe_fini(ptr noundef %doe_cap) local_unnamed_addr #0 {
entry:
  %read_mbox = getelementptr inbounds nuw i8, ptr %doe_cap, i64 32
  %0 = load ptr, ptr %read_mbox, align 8
  tail call void @g_free(ptr noundef %0) #9
  %write_mbox = getelementptr inbounds nuw i8, ptr %doe_cap, i64 24
  %1 = load ptr, ptr %write_mbox, align 8
  tail call void @g_free(ptr noundef %1) #9
  tail call void @g_free(ptr noundef %doe_cap) #9
  ret void
}